; ModuleID = '48/1437.c'
source_filename = "48/1437.c"
target datalayout = "e-m:e-p270:32:32-p271:32:32-p272:64:64-i64:64-f80:128-n8:16:32:64-S128"
target triple = "x86_64-pc-linux-gnu"

@.str = private unnamed_addr constant [5 x i8] c"%d%d\00", align 1
@.str.1 = private unnamed_addr constant [4 x i8] c"%d \00", align 1
@.str.2 = private unnamed_addr constant [4 x i8] c"%d\0A\00", align 1

; Function Attrs: noinline nounwind uwtable
define dso_local i32 @main() #0 {
  %1 = alloca i32, align 4
  %2 = alloca i32, align 4
  %3 = alloca i32, align 4
  %4 = alloca [9 x [9 x i32]], align 16
  %5 = alloca [9 x [9 x i32]], align 16
  %6 = alloca i32, align 4
  %7 = alloca i32, align 4
  %8 = alloca i32, align 4
  store i32 0, i32* %1, align 4
  %9 = bitcast [9 x [9 x i32]]* %4 to i8*
  call void @llvm.memset.p0i8.i64(i8* align 16 %9, i8 0, i64 324, i1 false)
  %10 = bitcast [9 x [9 x i32]]* %5 to i8*
  call void @llvm.memset.p0i8.i64(i8* align 16 %10, i8 0, i64 324, i1 false)
  %11 = call i32 (i8*, ...) @__isoc99_scanf(i8* getelementptr inbounds ([5 x i8], [5 x i8]* @.str, i64 0, i64 0), i32* %2, i32* %3)
  %12 = load i32, i32* %2, align 4
  %13 = getelementptr inbounds [9 x [9 x i32]], [9 x [9 x i32]]* %4, i64 0, i64 4
  %14 = getelementptr inbounds [9 x i32], [9 x i32]* %13, i64 0, i64 4
  store i32 %12, i32* %14, align 16
  store i32 0, i32* %8, align 4
  br label %15

15:                                               ; preds = %251, %0
  %16 = load i32, i32* %8, align 4
  %17 = load i32, i32* %3, align 4
  %18 = icmp slt i32 %16, %17
  br i1 %18, label %19, label %254

19:                                               ; preds = %15
  store i32 0, i32* %6, align 4
  br label %20

20:                                               ; preds = %45, %19
  %21 = load i32, i32* %6, align 4
  %22 = icmp slt i32 %21, 9
  br i1 %22, label %23, label %48

23:                                               ; preds = %20
  store i32 0, i32* %7, align 4
  br label %24

24:                                               ; preds = %41, %23
  %25 = load i32, i32* %7, align 4
  %26 = icmp slt i32 %25, 9
  br i1 %26, label %27, label %44

27:                                               ; preds = %24
  %28 = load i32, i32* %6, align 4
  %29 = sext i32 %28 to i64
  %30 = getelementptr inbounds [9 x [9 x i32]], [9 x [9 x i32]]* %4, i64 0, i64 %29
  %31 = load i32, i32* %7, align 4
  %32 = sext i32 %31 to i64
  %33 = getelementptr inbounds [9 x i32], [9 x i32]* %30, i64 0, i64 %32
  %34 = load i32, i32* %33, align 4
  %35 = load i32, i32* %6, align 4
  %36 = sext i32 %35 to i64
  %37 = getelementptr inbounds [9 x [9 x i32]], [9 x [9 x i32]]* %5, i64 0, i64 %36
  %38 = load i32, i32* %7, align 4
  %39 = sext i32 %38 to i64
  %40 = getelementptr inbounds [9 x i32], [9 x i32]* %37, i64 0, i64 %39
  store i32 %34, i32* %40, align 4
  br label %41

41:                                               ; preds = %27
  %42 = load i32, i32* %7, align 4
  %43 = add nsw i32 %42, 1
  store i32 %43, i32* %7, align 4
  br label %24

44:                                               ; preds = %24
  br label %45

45:                                               ; preds = %44
  %46 = load i32, i32* %6, align 4
  %47 = add nsw i32 %46, 1
  store i32 %47, i32* %6, align 4
  br label %20

48:                                               ; preds = %20
  store i32 0, i32* %6, align 4
  br label %49

49:                                               ; preds = %218, %48
  %50 = load i32, i32* %6, align 4
  %51 = icmp slt i32 %50, 9
  br i1 %51, label %52, label %221

52:                                               ; preds = %49
  store i32 0, i32* %7, align 4
  br label %53

53:                                               ; preds = %214, %52
  %54 = load i32, i32* %7, align 4
  %55 = icmp slt i32 %54, 9
  br i1 %55, label %56, label %217

56:                                               ; preds = %53
  %57 = load i32, i32* %6, align 4
  %58 = sext i32 %57 to i64
  %59 = getelementptr inbounds [9 x [9 x i32]], [9 x [9 x i32]]* %4, i64 0, i64 %58
  %60 = load i32, i32* %7, align 4
  %61 = sext i32 %60 to i64
  %62 = getelementptr inbounds [9 x i32], [9 x i32]* %59, i64 0, i64 %61
  %63 = load i32, i32* %62, align 4
  %64 = icmp ne i32 %63, 0
  br i1 %64, label %65, label %213

65:                                               ; preds = %56
  %66 = load i32, i32* %6, align 4
  %67 = sext i32 %66 to i64
  %68 = getelementptr inbounds [9 x [9 x i32]], [9 x [9 x i32]]* %4, i64 0, i64 %67
  %69 = load i32, i32* %7, align 4
  %70 = sext i32 %69 to i64
  %71 = getelementptr inbounds [9 x i32], [9 x i32]* %68, i64 0, i64 %70
  %72 = load i32, i32* %71, align 4
  %73 = load i32, i32* %6, align 4
  %74 = sub nsw i32 %73, 1
  %75 = sext i32 %74 to i64
  %76 = getelementptr inbounds [9 x [9 x i32]], [9 x [9 x i32]]* %5, i64 0, i64 %75
  %77 = load i32, i32* %7, align 4
  %78 = sub nsw i32 %77, 1
  %79 = sext i32 %78 to i64
  %80 = getelementptr inbounds [9 x i32], [9 x i32]* %76, i64 0, i64 %79
  %81 = load i32, i32* %80, align 4
  %82 = add nsw i32 %81, %72
  store i32 %82, i32* %80, align 4
  %83 = load i32, i32* %6, align 4
  %84 = sext i32 %83 to i64
  %85 = getelementptr inbounds [9 x [9 x i32]], [9 x [9 x i32]]* %4, i64 0, i64 %84
  %86 = load i32, i32* %7, align 4
  %87 = sext i32 %86 to i64
  %88 = getelementptr inbounds [9 x i32], [9 x i32]* %85, i64 0, i64 %87
  %89 = load i32, i32* %88, align 4
  %90 = load i32, i32* %6, align 4
  %91 = sub nsw i32 %90, 1
  %92 = sext i32 %91 to i64
  %93 = getelementptr inbounds [9 x [9 x i32]], [9 x [9 x i32]]* %5, i64 0, i64 %92
  %94 = load i32, i32* %7, align 4
  %95 = sext i32 %94 to i64
  %96 = getelementptr inbounds [9 x i32], [9 x i32]* %93, i64 0, i64 %95
  %97 = load i32, i32* %96, align 4
  %98 = add nsw i32 %97, %89
  store i32 %98, i32* %96, align 4
  %99 = load i32, i32* %6, align 4
  %100 = sext i32 %99 to i64
  %101 = getelementptr inbounds [9 x [9 x i32]], [9 x [9 x i32]]* %4, i64 0, i64 %100
  %102 = load i32, i32* %7, align 4
  %103 = sext i32 %102 to i64
  %104 = getelementptr inbounds [9 x i32], [9 x i32]* %101, i64 0, i64 %103
  %105 = load i32, i32* %104, align 4
  %106 = load i32, i32* %6, align 4
  %107 = sub nsw i32 %106, 1
  %108 = sext i32 %107 to i64
  %109 = getelementptr inbounds [9 x [9 x i32]], [9 x [9 x i32]]* %5, i64 0, i64 %108
  %110 = load i32, i32* %7, align 4
  %111 = add nsw i32 %110, 1
  %112 = sext i32 %111 to i64
  %113 = getelementptr inbounds [9 x i32], [9 x i32]* %109, i64 0, i64 %112
  %114 = load i32, i32* %113, align 4
  %115 = add nsw i32 %114, %105
  store i32 %115, i32* %113, align 4
  %116 = load i32, i32* %6, align 4
  %117 = sext i32 %116 to i64
  %118 = getelementptr inbounds [9 x [9 x i32]], [9 x [9 x i32]]* %4, i64 0, i64 %117
  %119 = load i32, i32* %7, align 4
  %120 = sext i32 %119 to i64
  %121 = getelementptr inbounds [9 x i32], [9 x i32]* %118, i64 0, i64 %120
  %122 = load i32, i32* %121, align 4
  %123 = load i32, i32* %6, align 4
  %124 = sext i32 %123 to i64
  %125 = getelementptr inbounds [9 x [9 x i32]], [9 x [9 x i32]]* %5, i64 0, i64 %124
  %126 = load i32, i32* %7, align 4
  %127 = sub nsw i32 %126, 1
  %128 = sext i32 %127 to i64
  %129 = getelementptr inbounds [9 x i32], [9 x i32]* %125, i64 0, i64 %128
  %130 = load i32, i32* %129, align 4
  %131 = add nsw i32 %130, %122
  store i32 %131, i32* %129, align 4
  %132 = load i32, i32* %6, align 4
  %133 = sext i32 %132 to i64
  %134 = getelementptr inbounds [9 x [9 x i32]], [9 x [9 x i32]]* %4, i64 0, i64 %133
  %135 = load i32, i32* %7, align 4
  %136 = sext i32 %135 to i64
  %137 = getelementptr inbounds [9 x i32], [9 x i32]* %134, i64 0, i64 %136
  %138 = load i32, i32* %137, align 4
  %139 = load i32, i32* %6, align 4
  %140 = sext i32 %139 to i64
  %141 = getelementptr inbounds [9 x [9 x i32]], [9 x [9 x i32]]* %5, i64 0, i64 %140
  %142 = load i32, i32* %7, align 4
  %143 = sext i32 %142 to i64
  %144 = getelementptr inbounds [9 x i32], [9 x i32]* %141, i64 0, i64 %143
  %145 = load i32, i32* %144, align 4
  %146 = add nsw i32 %145, %138
  store i32 %146, i32* %144, align 4
  %147 = load i32, i32* %6, align 4
  %148 = sext i32 %147 to i64
  %149 = getelementptr inbounds [9 x [9 x i32]], [9 x [9 x i32]]* %4, i64 0, i64 %148
  %150 = load i32, i32* %7, align 4
  %151 = sext i32 %150 to i64
  %152 = getelementptr inbounds [9 x i32], [9 x i32]* %149, i64 0, i64 %151
  %153 = load i32, i32* %152, align 4
  %154 = load i32, i32* %6, align 4
  %155 = sext i32 %154 to i64
  %156 = getelementptr inbounds [9 x [9 x i32]], [9 x [9 x i32]]* %5, i64 0, i64 %155
  %157 = load i32, i32* %7, align 4
  %158 = add nsw i32 %157, 1
  %159 = sext i32 %158 to i64
  %160 = getelementptr inbounds [9 x i32], [9 x i32]* %156, i64 0, i64 %159
  %161 = load i32, i32* %160, align 4
  %162 = add nsw i32 %161, %153
  store i32 %162, i32* %160, align 4
  %163 = load i32, i32* %6, align 4
  %164 = sext i32 %163 to i64
  %165 = getelementptr inbounds [9 x [9 x i32]], [9 x [9 x i32]]* %4, i64 0, i64 %164
  %166 = load i32, i32* %7, align 4
  %167 = sext i32 %166 to i64
  %168 = getelementptr inbounds [9 x i32], [9 x i32]* %165, i64 0, i64 %167
  %169 = load i32, i32* %168, align 4
  %170 = load i32, i32* %6, align 4
  %171 = add nsw i32 %170, 1
  %172 = sext i32 %171 to i64
  %173 = getelementptr inbounds [9 x [9 x i32]], [9 x [9 x i32]]* %5, i64 0, i64 %172
  %174 = load i32, i32* %7, align 4
  %175 = sub nsw i32 %174, 1
  %176 = sext i32 %175 to i64
  %177 = getelementptr inbounds [9 x i32], [9 x i32]* %173, i64 0, i64 %176
  %178 = load i32, i32* %177, align 4
  %179 = add nsw i32 %178, %169
  store i32 %179, i32* %177, align 4
  %180 = load i32, i32* %6, align 4
  %181 = sext i32 %180 to i64
  %182 = getelementptr inbounds [9 x [9 x i32]], [9 x [9 x i32]]* %4, i64 0, i64 %181
  %183 = load i32, i32* %7, align 4
  %184 = sext i32 %183 to i64
  %185 = getelementptr inbounds [9 x i32], [9 x i32]* %182, i64 0, i64 %184
  %186 = load i32, i32* %185, align 4
  %187 = load i32, i32* %6, align 4
  %188 = add nsw i32 %187, 1
  %189 = sext i32 %188 to i64
  %190 = getelementptr inbounds [9 x [9 x i32]], [9 x [9 x i32]]* %5, i64 0, i64 %189
  %191 = load i32, i32* %7, align 4
  %192 = sext i32 %191 to i64
  %193 = getelementptr inbounds [9 x i32], [9 x i32]* %190, i64 0, i64 %192
  %194 = load i32, i32* %193, align 4
  %195 = add nsw i32 %194, %186
  store i32 %195, i32* %193, align 4
  %196 = load i32, i32* %6, align 4
  %197 = sext i32 %196 to i64
  %198 = getelementptr inbounds [9 x [9 x i32]], [9 x [9 x i32]]* %4, i64 0, i64 %197
  %199 = load i32, i32* %7, align 4
  %200 = sext i32 %199 to i64
  %201 = getelementptr inbounds [9 x i32], [9 x i32]* %198, i64 0, i64 %200
  %202 = load i32, i32* %201, align 4
  %203 = load i32, i32* %6, align 4
  %204 = add nsw i32 %203, 1
  %205 = sext i32 %204 to i64
  %206 = getelementptr inbounds [9 x [9 x i32]], [9 x [9 x i32]]* %5, i64 0, i64 %205
  %207 = load i32, i32* %7, align 4
  %208 = add nsw i32 %207, 1
  %209 = sext i32 %208 to i64
  %210 = getelementptr inbounds [9 x i32], [9 x i32]* %206, i64 0, i64 %209
  %211 = load i32, i32* %210, align 4
  %212 = add nsw i32 %211, %202
  store i32 %212, i32* %210, align 4
  br label %213

213:                                              ; preds = %65, %56
  br label %214

214:                                              ; preds = %213
  %215 = load i32, i32* %7, align 4
  %216 = add nsw i32 %215, 1
  store i32 %216, i32* %7, align 4
  br label %53

217:                                              ; preds = %53
  br label %218

218:                                              ; preds = %217
  %219 = load i32, i32* %6, align 4
  %220 = add nsw i32 %219, 1
  store i32 %220, i32* %6, align 4
  br label %49

221:                                              ; preds = %49
  store i32 0, i32* %6, align 4
  br label %222

222:                                              ; preds = %247, %221
  %223 = load i32, i32* %6, align 4
  %224 = icmp slt i32 %223, 9
  br i1 %224, label %225, label %250

225:                                              ; preds = %222
  store i32 0, i32* %7, align 4
  br label %226

226:                                              ; preds = %243, %225
  %227 = load i32, i32* %7, align 4
  %228 = icmp slt i32 %227, 9
  br i1 %228, label %229, label %246

229:                                              ; preds = %226
  %230 = load i32, i32* %6, align 4
  %231 = sext i32 %230 to i64
  %232 = getelementptr inbounds [9 x [9 x i32]], [9 x [9 x i32]]* %5, i64 0, i64 %231
  %233 = load i32, i32* %7, align 4
  %234 = sext i32 %233 to i64
  %235 = getelementptr inbounds [9 x i32], [9 x i32]* %232, i64 0, i64 %234
  %236 = load i32, i32* %235, align 4
  %237 = load i32, i32* %6, align 4
  %238 = sext i32 %237 to i64
  %239 = getelementptr inbounds [9 x [9 x i32]], [9 x [9 x i32]]* %4, i64 0, i64 %238
  %240 = load i32, i32* %7, align 4
  %241 = sext i32 %240 to i64
  %242 = getelementptr inbounds [9 x i32], [9 x i32]* %239, i64 0, i64 %241
  store i32 %236, i32* %242, align 4
  br label %243

243:                                              ; preds = %229
  %244 = load i32, i32* %7, align 4
  %245 = add nsw i32 %244, 1
  store i32 %245, i32* %7, align 4
  br label %226

246:                                              ; preds = %226
  br label %247

247:                                              ; preds = %246
  %248 = load i32, i32* %6, align 4
  %249 = add nsw i32 %248, 1
  store i32 %249, i32* %6, align 4
  br label %222

250:                                              ; preds = %222
  br label %251

251:                                              ; preds = %250
  %252 = load i32, i32* %8, align 4
  %253 = add nsw i32 %252, 1
  store i32 %253, i32* %8, align 4
  br label %15

254:                                              ; preds = %15
  store i32 0, i32* %6, align 4
  br label %255

255:                                              ; preds = %281, %254
  %256 = load i32, i32* %6, align 4
  %257 = icmp slt i32 %256, 9
  br i1 %257, label %258, label %284

258:                                              ; preds = %255
  store i32 0, i32* %7, align 4
  br label %259

259:                                              ; preds = %271, %258
  %260 = load i32, i32* %7, align 4
  %261 = icmp slt i32 %260, 8
  br i1 %261, label %262, label %274

262:                                              ; preds = %259
  %263 = load i32, i32* %6, align 4
  %264 = sext i32 %263 to i64
  %265 = getelementptr inbounds [9 x [9 x i32]], [9 x [9 x i32]]* %4, i64 0, i64 %264
  %266 = load i32, i32* %7, align 4
  %267 = sext i32 %266 to i64
  %268 = getelementptr inbounds [9 x i32], [9 x i32]* %265, i64 0, i64 %267
  %269 = load i32, i32* %268, align 4
  %270 = call i32 (i8*, ...) @printf(i8* getelementptr inbounds ([4 x i8], [4 x i8]* @.str.1, i64 0, i64 0), i32 %269)
  br label %271

271:                                              ; preds = %262
  %272 = load i32, i32* %7, align 4
  %273 = add nsw i32 %272, 1
  store i32 %273, i32* %7, align 4
  br label %259

274:                                              ; preds = %259
  %275 = load i32, i32* %6, align 4
  %276 = sext i32 %275 to i64
  %277 = getelementptr inbounds [9 x [9 x i32]], [9 x [9 x i32]]* %4, i64 0, i64 %276
  %278 = getelementptr inbounds [9 x i32], [9 x i32]* %277, i64 0, i64 8
  %279 = load i32, i32* %278, align 4
  %280 = call i32 (i8*, ...) @printf(i8* getelementptr inbounds ([4 x i8], [4 x i8]* @.str.2, i64 0, i64 0), i32 %279)
  br label %281

281:                                              ; preds = %274
  %282 = load i32, i32* %6, align 4
  %283 = add nsw i32 %282, 1
  store i32 %283, i32* %6, align 4
  br label %255

284:                                              ; preds = %255
  ret i32 0
}

; Function Attrs: argmemonly nounwind willreturn
declare void @llvm.memset.p0i8.i64(i8* nocapture writeonly, i8, i64, i1 immarg) #1

declare dso_local i32 @__isoc99_scanf(i8*, ...) #2

declare dso_local i32 @printf(i8*, ...) #2


!llvm.module.flags = !{!0}
!llvm.ident = !{!1}

!0 = !{i32 1, !"wchar_size", i32 4}
!1 = !{!"clang version 10.0.0-4ubuntu1 "}
